(dp1
S'People'
p2
c__builtin__
set
p3
((lp4
S'woman'
p5
aS'people'
p6
aS'avatar'
p7
aS'person'
p8
aS'contact'
p9
aS'personadd'
p10
aS'female'
p11
aS'stalker'
p12
aS'male'
p13
aS'man'
p14
atRp15
sS'Mobile'
p16
g3
((lp17
S'ipad'
p18
aS'map'
p19
aS'wifi'
p20
aS'mobile'
p21
aS'navigate'
p22
aS'flash'
p23
aS'telephone'
p24
aS'mixer'
p25
aS'bluetooth'
p26
aS'playstore'
p27
aS'phone'
p28
aS'camera'
p29
aS'location'
p30
aS'reminder'
p31
aS'battery'
p32
aS'iphone'
p33
atRp34
sS'Arrows'
p35
g3
((lp36
S'caret'
p37
aS'right'
p38
aS'angle'
p39
aS'chevron'
p40
aS'arrows'
p41
aS'up'
p42
aS'hand'
p43
aS'down'
p44
aS'arrow'
p45
aS'left'
p46
atRp47
sS'MediaPlayer'
p48
g3
((lp49
S'mute'
p50
aS'headphone'
p51
aS'player'
p52
aS'disc'
p53
aS'video'
p54
aS'fastforward'
p55
aS'film'
p56
aS'microphone'
p57
aS'pause'
p58
aS'media'
p59
aS'mic'
p60
aS'cinema'
p61
aS'speakerphone'
p62
aS'fast'
p63
aS'camera'
p64
aS'music'
p65
aS'forward'
p66
aS'speaker'
p67
aS'play'
p68
aS'ipod'
p69
aS'stop'
p70
aS'wave'
p71
aS'volume'
p72
aS'levels'
p73
aS'waves'
p74
aS'podcast'
p75
aS'theater'
p76
aS'fastbackward'
p77
aS'eject'
p78
aS'itunes'
p79
aS'record'
p80
aS'radio'
p81
aS'backward'
p82
atRp83
sS'TextEditor'
p84
g3
((lp85
S'font-size'
p86
aS'chain'
p87
aS'image'
p88
aS'paragraph'
p89
aS'strikethrough'
p90
aS'header'
p91
aS'file'
p92
aS'images'
p93
aS'scissors'
p94
aS'font'
p95
aS'redo'
p96
aS'underline'
p97
aS'row'
p98
aS'cut'
p99
aS'text-width'
p100
aS'wand'
p101
aS'column'
p102
aS'clipboard'
p103
aS'editor'
p104
aS'italic'
p105
aS'quote'
p106
aS'subscript'
p107
aS'save'
p108
aS'unlink'
p109
aS'paperclip'
p110
aS'files'
p111
aS'bold'
p112
aS'floppy'
p113
aS'text-height'
p114
aS'undo'
p115
aS'folder'
p116
aS'rows'
p117
aS'link'
p118
aS'copy'
p119
aS'paste'
p120
aS'document'
p121
aS'text-editor'
p122
aS'outdent'
p123
aS'compose'
p124
aS'ol'
p125
aS'indent'
p126
aS'edit'
p127
aS'align'
p128
aS'list'
p129
aS'trash'
p130
aS'overline'
p131
aS'ul'
p132
aS'th'
p133
aS'columns'
p134
aS'fontsize'
p135
aS'superscript'
p136
aS'throughline'
p137
aS'justify'
p138
atRp139
sS'Meteor'
p140
g3
((lp141
S'rainy'
p142
aS'sun-rise'
p143
aS'temperature'
p144
aS'snowy'
p145
aS'partlysunny'
p146
aS'thunder'
p147
aS'sunny'
p148
aS'thunderstorm'
p149
aS'rain'
p150
aS'snow'
p151
aS'sunrise'
p152
aS'windy'
p153
aS'fog'
p154
aS'cloudy'
p155
aS'storm'
p156
aS'night'
p157
aS'foggy'
p158
aS'sun'
p159
aS'moon'
p160
aS'wind'
p161
atRp162
sS'Social'
p163
g3
((lp164
S'flickr'
p165
aS'trello'
p166
aS'instagram'
p167
aS'blogger'
p168
aS'twitter'
p169
aS'vk'
p170
aS'share'
p171
aS'linkedin'
p172
aS'tumblr'
p173
aS'vine'
p174
aS'hackernews'
p175
aS'skype'
p176
aS'dribbble'
p177
aS'jsfiddle'
p178
aS'wechat'
p179
aS'google-plus'
p180
aS'weibo'
p181
aS'slideshare'
p182
aS'disqus'
p183
aS'xing'
p184
aS'pinterest'
p185
aS'weixin'
p186
aS'designernews'
p187
aS'wordpress'
p188
aS'gittip'
p189
aS'lastfm'
p190
aS'foursqure'
p191
aS'stack-exchange'
p192
aS'reddit'
p193
aS'renren'
p194
aS'stack-overflow'
p195
aS'bitbucket'
p196
aS'facebook'
p197
aS'rebel'
p198
aS'stackoverflow'
p199
aS'dropbox'
p200
aS'digg'
p201
aS'soundcloud'
p202
aS'rss'
p203
aS'qq'
p204
aS'gplus'
p205
aS'github'
p206
aS'slack'
p207
aS'yelp'
p208
aS'drupal'
p209
aS'vimeo'
p210
aS'googleplus'
p211
aS'youtube'
p212
aS'hacker-news'
p213
aS'social'
p214
aS'hn'
p215
aS'twitch'
p216
aS'4sq'
p217
atRp218
sS'Brands'
p219
g3
((lp220
S'css3'
p221
aS'playstation'
p222
aS'google'
p223
aS'apple'
p224
aS'windows'
p225
aS'paypal'
p226
aS'yahoo'
p227
aS'xbox'
p228
aS'google-wallet'
p229
aS'amazon'
p230
aS'git'
p231
aS'tencent'
p232
aS'html5'
p233
aS'freebsd'
p234
aS'linux'
p235
aS'sony'
p236
aS'android'
p237
aS'play-station'
p238
atRp239
sS'Payment'
p240
g3
((lp241
S'googlewallet'
p242
aS'btc'
p243
aS'credit'
p244
aS'credit-card'
p245
aS'amex'
p246
aS'paypal'
p247
aS'discover'
p248
aS'creditcard'
p249
aS'wallet'
p250
aS'bitcoin'
p251
aS'visa'
p252
aS'dogecoin'
p253
aS'stripe'
p254
aS'mastercard'
p255
aS'gittip'
p256
atRp257
s.